target datalayout = "e-m:e-p270:32:32-p271:32:32-p272:64:64-i64:64-i128:128-f80:128-n8:16:32:64-S128"
target triple = "x86_64-pc-linux-gnu"

%struct.dt_pthread_mutex_t = type { %union.pthread_mutex_t }
%union.pthread_mutex_t = type { %struct.__pthread_mutex_s }
%struct.__pthread_mutex_s = type { i32, i32, i32, i32, i32, i16, i16, %struct.__pthread_internal_list }
%struct.__pthread_internal_list = type { ptr, ptr }
%struct.dt_cache_t = type { %struct.dt_pthread_mutex_t, i64, i64, i64, ptr, ptr, ptr, ptr, ptr, ptr }

; Function Attrs: inlinehint nounwind uwtable
define internal i32 @dt_pthread_mutex_init(ptr noundef %0, ptr noundef %1) #1 {
  %3 = alloca ptr, align 8
  %4 = alloca ptr, align 8
  store ptr %0, ptr %3, align 8, !tbaa !26
  store ptr %1, ptr %4, align 8, !tbaa !28
  %5 = load ptr, ptr %3, align 8, !tbaa !26
  %6 = getelementptr inbounds nuw %struct.dt_pthread_mutex_t, ptr %5, i32 0, i32 0
  %7 = load ptr, ptr %4, align 8, !tbaa !28
  %8 = call i32 @pthread_mutex_init(ptr noundef %6, ptr noundef %7) #6
  ret i32 %8
}

; Function Attrs: nounwind uwtable
define void @dt_cache_init(ptr noundef %0, i64 noundef %1, i64 noundef %2) #0 {
  %4 = alloca ptr, align 8
  %5 = alloca i64, align 8
  %6 = alloca i64, align 8
  store ptr %0, ptr %4, align 8, !tbaa !6
  store i64 %1, ptr %5, align 8, !tbaa !11
  store i64 %2, ptr %6, align 8, !tbaa !11
  %7 = load ptr, ptr %4, align 8, !tbaa !6
  %8 = getelementptr inbounds nuw %struct.dt_cache_t, ptr %7, i32 0, i32 2
  store i64 0, ptr %8, align 8, !tbaa !13
  %9 = load ptr, ptr %4, align 8, !tbaa !6
  %10 = getelementptr inbounds nuw %struct.dt_cache_t, ptr %9, i32 0, i32 5
  store ptr null, ptr %10, align 8, !tbaa !18
  %11 = load i64, ptr %5, align 8, !tbaa !11
  %12 = load ptr, ptr %4, align 8, !tbaa !6
  %13 = getelementptr inbounds nuw %struct.dt_cache_t, ptr %12, i32 0, i32 1
  store i64 %11, ptr %13, align 8, !tbaa !19
  %14 = load i64, ptr %6, align 8, !tbaa !11
  %15 = load ptr, ptr %4, align 8, !tbaa !6
  %16 = getelementptr inbounds nuw %struct.dt_cache_t, ptr %15, i32 0, i32 3
  store i64 %14, ptr %16, align 8, !tbaa !20
  %17 = load ptr, ptr %4, align 8, !tbaa !6
  %18 = getelementptr inbounds nuw %struct.dt_cache_t, ptr %17, i32 0, i32 0
  %19 = call i32 @dt_pthread_mutex_init(ptr noundef %18, ptr noundef null)
  %20 = load ptr, ptr %4, align 8, !tbaa !6
  %21 = getelementptr inbounds nuw %struct.dt_cache_t, ptr %20, i32 0, i32 6
  store ptr null, ptr %21, align 8, !tbaa !21
  %22 = load ptr, ptr %4, align 8, !tbaa !6
  %23 = getelementptr inbounds nuw %struct.dt_cache_t, ptr %22, i32 0, i32 8
  store ptr null, ptr %23, align 8, !tbaa !22
  %24 = load ptr, ptr %4, align 8, !tbaa !6
  %25 = getelementptr inbounds nuw %struct.dt_cache_t, ptr %24, i32 0, i32 7
  store ptr null, ptr %25, align 8, !tbaa !23
  %26 = load ptr, ptr %4, align 8, !tbaa !6
  %27 = getelementptr inbounds nuw %struct.dt_cache_t, ptr %26, i32 0, i32 9
  store ptr null, ptr %27, align 8, !tbaa !24
  %28 = call ptr @g_hash_table_new(ptr noundef null, ptr noundef null)
  %29 = load ptr, ptr %4, align 8, !tbaa !6
  %30 = getelementptr inbounds nuw %struct.dt_cache_t, ptr %29, i32 0, i32 4
  store ptr %28, ptr %30, align 8, !tbaa !25
  ret void
}