; Function Attrs: nounwind uwtable
define void @dt_cache_init(ptr noundef initializes((40, 64), (72, 80)) %0, i64 noundef %1, i64 noundef %2) local_unnamed_addr #0 {
  %4 = getelementptr inbounds nuw i8, ptr %0, i64 48
  store i64 0, ptr %4, align 8, !tbaa !6
  %5 = getelementptr inbounds nuw i8, ptr %0, i64 72
  store ptr null, ptr %5, align 8, !tbaa !15
  %6 = getelementptr inbounds nuw i8, ptr %0, i64 40
  store i64 %1, ptr %6, align 8, !tbaa !16
  %7 = getelementptr inbounds nuw i8, ptr %0, i64 56
  store i64 %2, ptr %7, align 8, !tbaa !17
  %8 = tail call i32 @pthread_mutex_init(ptr noundef %0, ptr noundef null) #8
  %9 = getelementptr inbounds nuw i8, ptr %0, i64 80
  tail call void @llvm.memset.p0.i64(ptr noundef nonnull align 8 dereferenceable(32) %9, i8 0, i64 32, i1 false)
  %10 = tail call ptr @g_hash_table_new(ptr noundef null, ptr noundef null) #8
  %11 = getelementptr inbounds nuw i8, ptr %0, i64 64
  store ptr %10, ptr %11, align 8, !tbaa !18
  ret void
}